target datalayout = "e-m:e-p270:32:32-p271:32:32-p272:64:64-i64:64-i128:128-f80:128-n8:16:32:64-S128"
target triple = "x86_64-pc-linux-gnu"

; Function Attrs: mustprogress uwtable
define dso_local noundef i32 @_ZN4Luau7CodeGen19getInstructionCountEPKjj(ptr noundef %0, i32 noundef %1) #0 {
  %3 = alloca ptr, align 8
  %4 = alloca i32, align 4
  %5 = alloca i32, align 4
  %6 = alloca i32, align 4
  store ptr %0, ptr %3, align 8
  store i32 %1, ptr %4, align 4
  store i32 0, ptr %5, align 4
  store i32 0, ptr %6, align 4
  br label %7

7:                                                ; preds = %11, %2
  %8 = load i32, ptr %6, align 4
  %9 = load i32, ptr %4, align 4
  %10 = icmp ult i32 %8, %9
  br i1 %10, label %11, label %23

11:                                               ; preds = %7
  %12 = load i32, ptr %5, align 4
  %13 = add i32 %12, 1
  store i32 %13, ptr %5, align 4
  %14 = load ptr, ptr %3, align 8
  %15 = load i32, ptr %6, align 4
  %16 = zext i32 %15 to i64
  %17 = getelementptr inbounds i32, ptr %14, i64 %16
  %18 = load i32, ptr %17, align 4
  %19 = and i32 %18, 255
  %20 = call noundef i32 @_ZN4Luau11getOpLengthE10LuauOpcode(i32 noundef %19)
  %21 = load i32, ptr %6, align 4
  %22 = add i32 %21, %20
  store i32 %22, ptr %6, align 4
  br label %7, !llvm.loop !7

23:                                               ; preds = %7
  %24 = load i32, ptr %5, align 4
  ret i32 %24
}