; Function Attrs: mustprogress nounwind uwtable
define dso_local noundef i32 @_ZN4Luau7CodeGen19getInstructionCountEPKjj(ptr nocapture noundef readonly %0, i32 noundef %1) local_unnamed_addr #1 {
  %.not = icmp eq i32 %1, 0
  br i1 %.not, label %._crit_edge, label %.lr.ph

.lr.ph:                                           ; preds = %2, %.lr.ph
  %.08 = phi i32 [ %9, %.lr.ph ], [ 0, %2 ]
  %.067 = phi i32 [ %3, %.lr.ph ], [ 0, %2 ]
  %3 = add i32 %.067, 1
  %4 = zext i32 %.08 to i64
  %5 = getelementptr inbounds i32, ptr %0, i64 %4
  %6 = load i32, ptr %5, align 4
  %7 = and i32 %6, 255
  %8 = tail call noundef i32 @_ZN4Luau11getOpLengthE10LuauOpcode(i32 noundef %7)
  %9 = add i32 %8, %.08
  %10 = icmp ult i32 %9, %1
  br i1 %10, label %.lr.ph, label %._crit_edge, !llvm.loop !7

._crit_edge:                                      ; preds = %.lr.ph, %2
  %.06.lcssa = phi i32 [ 0, %2 ], [ %3, %.lr.ph ]
  ret i32 %.06.lcssa
}